target datalayout = "e-m:e-p270:32:32-p271:32:32-p272:64:64-i64:64-i128:128-f80:128-n8:16:32:64-S128"
target triple = "x86_64-pc-linux-gnu"

%struct.nghttp2_nv = type { ptr, ptr, i64, i64, i8 }

; Function Attrs: nounwind uwtable
define internal i32 @bytes_compar(ptr noundef %0, i64 noundef %1, ptr noundef %2, i64 noundef %3) #0 {
  %5 = alloca i32, align 4
  %6 = alloca ptr, align 8
  %7 = alloca i64, align 8
  %8 = alloca ptr, align 8
  %9 = alloca i64, align 8
  %10 = alloca i32, align 4
  %11 = alloca i32, align 4
  store ptr %0, ptr %6, align 8, !tbaa !3
  store i64 %1, ptr %7, align 8, !tbaa !18
  store ptr %2, ptr %8, align 8, !tbaa !3
  store i64 %3, ptr %9, align 8, !tbaa !18
  call void @llvm.lifetime.start.p0(i64 4, ptr %10) #7
  %12 = load i64, ptr %7, align 8, !tbaa !18
  %13 = load i64, ptr %9, align 8, !tbaa !18
  %14 = icmp eq i64 %12, %13
  br i1 %14, label %15, label %20

15:                                               ; preds = %4
  %16 = load ptr, ptr %6, align 8, !tbaa !3
  %17 = load ptr, ptr %8, align 8, !tbaa !3
  %18 = load i64, ptr %7, align 8, !tbaa !18
  %19 = call i32 @memcmp(ptr noundef %16, ptr noundef %17, i64 noundef %18) #9
  store i32 %19, ptr %5, align 4
  store i32 1, ptr %11, align 4
  br label %44

20:                                               ; preds = %4
  %21 = load i64, ptr %7, align 8, !tbaa !18
  %22 = load i64, ptr %9, align 8, !tbaa !18
  %23 = icmp ult i64 %21, %22
  br i1 %23, label %24, label %34

24:                                               ; preds = %20
  %25 = load ptr, ptr %6, align 8, !tbaa !3
  %26 = load ptr, ptr %8, align 8, !tbaa !3
  %27 = load i64, ptr %7, align 8, !tbaa !18
  %28 = call i32 @memcmp(ptr noundef %25, ptr noundef %26, i64 noundef %27) #9
  store i32 %28, ptr %10, align 4, !tbaa !19
  %29 = load i32, ptr %10, align 4, !tbaa !19
  %30 = icmp eq i32 %29, 0
  br i1 %30, label %31, label %32

31:                                               ; preds = %24
  store i32 -1, ptr %5, align 4
  store i32 1, ptr %11, align 4
  br label %44

32:                                               ; preds = %24
  %33 = load i32, ptr %10, align 4, !tbaa !19
  store i32 %33, ptr %5, align 4
  store i32 1, ptr %11, align 4
  br label %44

34:                                               ; preds = %20
  %35 = load ptr, ptr %6, align 8, !tbaa !3
  %36 = load ptr, ptr %8, align 8, !tbaa !3
  %37 = load i64, ptr %9, align 8, !tbaa !18
  %38 = call i32 @memcmp(ptr noundef %35, ptr noundef %36, i64 noundef %37) #9
  store i32 %38, ptr %10, align 4, !tbaa !19
  %39 = load i32, ptr %10, align 4, !tbaa !19
  %40 = icmp eq i32 %39, 0
  br i1 %40, label %41, label %42

41:                                               ; preds = %34
  store i32 1, ptr %5, align 4
  store i32 1, ptr %11, align 4
  br label %44

42:                                               ; preds = %34
  %43 = load i32, ptr %10, align 4, !tbaa !19
  store i32 %43, ptr %5, align 4
  store i32 1, ptr %11, align 4
  br label %44

44:                                               ; preds = %42, %41, %32, %31, %15
  call void @llvm.lifetime.end.p0(i64 4, ptr %10) #7
  %45 = load i32, ptr %5, align 4
  ret i32 %45
}

; Function Attrs: nounwind uwtable
define i32 @nghttp2_nv_compare_name(ptr noundef %0, ptr noundef %1) #0 {
  %3 = alloca ptr, align 8
  %4 = alloca ptr, align 8
  store ptr %0, ptr %3, align 8, !tbaa !8
  store ptr %1, ptr %4, align 8, !tbaa !8
  %5 = load ptr, ptr %3, align 8, !tbaa !8
  %6 = getelementptr inbounds nuw %struct.nghttp2_nv, ptr %5, i32 0, i32 0
  %7 = load ptr, ptr %6, align 8, !tbaa !106
  %8 = load ptr, ptr %3, align 8, !tbaa !8
  %9 = getelementptr inbounds nuw %struct.nghttp2_nv, ptr %8, i32 0, i32 2
  %10 = load i64, ptr %9, align 8, !tbaa !103
  %11 = load ptr, ptr %4, align 8, !tbaa !8
  %12 = getelementptr inbounds nuw %struct.nghttp2_nv, ptr %11, i32 0, i32 0
  %13 = load ptr, ptr %12, align 8, !tbaa !106
  %14 = load ptr, ptr %4, align 8, !tbaa !8
  %15 = getelementptr inbounds nuw %struct.nghttp2_nv, ptr %14, i32 0, i32 2
  %16 = load i64, ptr %15, align 8, !tbaa !103
  %17 = call i32 @bytes_compar(ptr noundef %7, i64 noundef %10, ptr noundef %13, i64 noundef %16)
  ret i32 %17
}