; Function Attrs: mustprogress nofree nounwind willreturn memory(read, inaccessiblemem: none) uwtable
define i32 @nghttp2_nv_compare_name(ptr noundef readonly captures(none) %0, ptr noundef readonly captures(none) %1) local_unnamed_addr #12 {
  %3 = load ptr, ptr %0, align 8, !tbaa !97
  %4 = getelementptr inbounds nuw i8, ptr %0, i64 16
  %5 = load i64, ptr %4, align 8, !tbaa !94
  %6 = load ptr, ptr %1, align 8, !tbaa !97
  %7 = getelementptr inbounds nuw i8, ptr %1, i64 16
  %8 = load i64, ptr %7, align 8, !tbaa !94
  %9 = icmp eq i64 %5, %8
  br i1 %9, label %10, label %12

10:                                               ; preds = %2
  %11 = tail call i32 @memcmp(ptr noundef readonly %3, ptr noundef readonly %6, i64 noundef %5) #20
  br label %bytes_compar.exit

12:                                               ; preds = %2
  %13 = icmp ult i64 %5, %8
  br i1 %13, label %14, label %17

14:                                               ; preds = %12
  %15 = tail call i32 @memcmp(ptr noundef readonly %3, ptr noundef readonly %6, i64 noundef %5) #20
  %16 = icmp eq i32 %15, 0
  %..i = select i1 %16, i32 -1, i32 %15
  br label %bytes_compar.exit

17:                                               ; preds = %12
  %18 = tail call i32 @memcmp(ptr noundef readonly %3, ptr noundef readonly %6, i64 noundef %8) #20
  %.21.i = tail call i32 @llvm.umax.i32(i32 %18, i32 1)
  br label %bytes_compar.exit

bytes_compar.exit:                                ; preds = %10, %14, %17
  %.0.i = phi i32 [ %11, %10 ], [ %..i, %14 ], [ %.21.i, %17 ]
  ret i32 %.0.i
}